; Function Attrs: mustprogress nofree norecurse nosync nounwind willreturn memory(read, inaccessiblemem: none) uwtable
define noundef zeroext i8 @_ZN7rocksdb19GetCompressionFlushERKNS_18ImmutableCFOptionsERKNS_16MutableCFOptionsE(ptr nocapture noundef nonnull readonly align 8 dereferenceable(281) %ioptions, ptr nocapture noundef nonnull readonly align 8 dereferenceable(560) %mutable_cf_options) local_unnamed_addr #4 {
entry:
  %0 = load i8, ptr %ioptions, align 8
  %cmp = icmp eq i8 %0, 1
  %compression_size_percent = getelementptr inbounds i8, ptr %mutable_cf_options, i64 280
  %1 = load i32, ptr %compression_size_percent, align 8
  %cmp1 = icmp sgt i32 %1, -1
  %or.cond = select i1 %cmp, i1 %cmp1, i1 false
  br i1 %or.cond, label %return, label %if.end

if.end:                                           ; preds = %entry
  %compression_per_level = getelementptr inbounds i8, ptr %mutable_cf_options, i64 504
  %2 = load ptr, ptr %compression_per_level, align 8
  %_M_finish.i.i = getelementptr inbounds i8, ptr %mutable_cf_options, i64 512
  %3 = load ptr, ptr %_M_finish.i.i, align 8
  %cmp.i.i = icmp eq ptr %2, %3
  %compression = getelementptr inbounds i8, ptr %mutable_cf_options, i64 363
  %.sink = select i1 %cmp.i.i, ptr %compression, ptr %2
  %4 = load i8, ptr %.sink, align 1
  br label %return

return:                                           ; preds = %if.end, %entry
  %retval.0 = phi i8 [ 0, %entry ], [ %4, %if.end ]
  ret i8 %retval.0
}